
digits:     file format elf64-x86-64


Disassembly of section .text:

0000000000401000 <_start>:
  401000:	e8 11 00 00 00       	call   401016 <_scan>
  401005:	e8 66 00 00 00       	call   401070 <_printDigit>
  40100a:	b8 3c 00 00 00       	mov    $0x3c,%eax
  40100f:	bf 00 00 00 00       	mov    $0x0,%edi
  401014:	0f 05                	syscall

0000000000401016 <_scan>:
  401016:	b8 00 00 00 00       	mov    $0x0,%eax
  40101b:	bf 00 00 00 00       	mov    $0x0,%edi
  401020:	48 be 00 20 40 00 00 	movabs $0x402000,%rsi
  401027:	00 00 00 
  40102a:	ba 01 00 00 00       	mov    $0x1,%edx
  40102f:	0f 05                	syscall
  401031:	48 8b 04 25 00 20 40 	mov    0x402000,%rax
  401038:	00 
  401039:	48 83 e8 30          	sub    $0x30,%rax
  40103d:	48 89 04 25 00 20 40 	mov    %rax,0x402000
  401044:	00 
  401045:	c3                   	ret

0000000000401046 <_printDigit_fromRAX>:
  401046:	48 83 c0 30          	add    $0x30,%rax
  40104a:	b4 0a                	mov    $0xa,%ah
  40104c:	66 89 04 25 00 20 40 	mov    %ax,0x402000
  401053:	00 
  401054:	b8 01 00 00 00       	mov    $0x1,%eax
  401059:	bf 01 00 00 00       	mov    $0x1,%edi
  40105e:	48 be 00 20 40 00 00 	movabs $0x402000,%rsi
  401065:	00 00 00 
  401068:	ba 02 00 00 00       	mov    $0x2,%edx
  40106d:	0f 05                	syscall
  40106f:	c3                   	ret

0000000000401070 <_printDigit>:
  401070:	48 8b 04 25 00 20 40 	mov    0x402000,%rax
  401077:	00 
  401078:	48 83 c0 30          	add    $0x30,%rax
  40107c:	b4 0a                	mov    $0xa,%ah
  40107e:	48 89 04 25 00 20 40 	mov    %rax,0x402000
  401085:	00 
  401086:	b8 01 00 00 00       	mov    $0x1,%eax
  40108b:	bf 01 00 00 00       	mov    $0x1,%edi
  401090:	48 be 00 20 40 00 00 	movabs $0x402000,%rsi
  401097:	00 00 00 
  40109a:	ba 01 00 00 00       	mov    $0x1,%edx
  40109f:	0f 05                	syscall
  4010a1:	48 8b 04 25 00 20 40 	mov    0x402000,%rax
  4010a8:	00 
  4010a9:	48 83 e8 30          	sub    $0x30,%rax
  4010ad:	48 89 04 25 00 20 40 	mov    %rax,0x402000
  4010b4:	00 
  4010b5:	c3                   	ret
